; Function Attrs: nounwind uwtable
define hidden zeroext i1 @SDL_SetGamepadLED_REAL(ptr noundef %0, i8 noundef zeroext %1, i8 noundef zeroext %2, i8 noundef zeroext %3) local_unnamed_addr #0 {
  tail call void @SDL_LockJoysticks_REAL() #10
  %5 = tail call zeroext i1 @SDL_ObjectValid(ptr noundef %0, i32 noundef 5) #10
  br i1 %5, label %6, label %SDL_GetGamepadJoystick_REAL.exit.thread

6:                                                ; preds = %4
  %7 = load ptr, ptr %0, align 8
  %8 = tail call zeroext i1 @SDL_IsJoystickValid(ptr noundef %7) #10
  br i1 %8, label %SDL_GetGamepadJoystick_REAL.exit, label %SDL_GetGamepadJoystick_REAL.exit.thread

SDL_GetGamepadJoystick_REAL.exit.thread:          ; preds = %4, %6
  %9 = tail call zeroext i1 (ptr, ...) @SDL_SetError_REAL(ptr noundef nonnull @.str.4, ptr noundef nonnull @.str.5) #10
  tail call void @SDL_UnlockJoysticks_REAL() #10
  br label %13

SDL_GetGamepadJoystick_REAL.exit:                 ; preds = %6
  %10 = load ptr, ptr %0, align 8
  tail call void @SDL_UnlockJoysticks_REAL() #10
  %.not = icmp eq ptr %10, null
  br i1 %.not, label %13, label %11

11:                                               ; preds = %SDL_GetGamepadJoystick_REAL.exit
  %12 = tail call zeroext i1 @SDL_SetJoystickLED_REAL(ptr noundef nonnull %10, i8 noundef zeroext %1, i8 noundef zeroext %2, i8 noundef zeroext %3) #10
  br label %13

13:                                               ; preds = %SDL_GetGamepadJoystick_REAL.exit.thread, %SDL_GetGamepadJoystick_REAL.exit, %11
  %.0 = phi i1 [ %12, %11 ], [ false, %SDL_GetGamepadJoystick_REAL.exit ], [ false, %SDL_GetGamepadJoystick_REAL.exit.thread ]
  ret i1 %.0
}